target datalayout = "e-m:e-p270:32:32-p271:32:32-p272:64:64-i64:64-i128:128-f80:128-n8:16:32:64-S128"
target triple = "x86_64-pc-linux-gnu"

%struct.FT_Vector_ = type { i64, i64 }
%struct.FT_StrokerRec_ = type { i64, i64, %struct.FT_Vector_, i64, i8, i8, i64, %struct.FT_Vector_, i64, i8, i32, i32, i32, i64, i64, [2 x %struct.FT_StrokeBorderRec_], ptr }
%struct.FT_StrokeBorderRec_ = type { i32, i32, ptr, ptr, i8, i32, ptr, i8 }

; Function Attrs: nounwind uwtable
define internal void @ft_stroke_border_reset(ptr noundef %0) #0 {
  %2 = alloca ptr, align 8
  store ptr %0, ptr %2, align 8
  %3 = load ptr, ptr %2, align 8
  %4 = getelementptr inbounds %struct.FT_StrokeBorderRec_, ptr %3, i32 0, i32 0
  store i32 0, ptr %4, align 8
  %5 = load ptr, ptr %2, align 8
  %6 = getelementptr inbounds %struct.FT_StrokeBorderRec_, ptr %5, i32 0, i32 5
  store i32 -1, ptr %6, align 4
  %7 = load ptr, ptr %2, align 8
  %8 = getelementptr inbounds %struct.FT_StrokeBorderRec_, ptr %7, i32 0, i32 7
  store i8 0, ptr %8, align 8
  ret void
}

; Function Attrs: nounwind uwtable
define void @FT_Stroker_Rewind(ptr noundef %0) #0 {
  %2 = alloca ptr, align 8
  store ptr %0, ptr %2, align 8
  %3 = load ptr, ptr %2, align 8
  %4 = icmp ne ptr %3, null
  br i1 %4, label %5, label %12

5:                                                ; preds = %1
  %6 = load ptr, ptr %2, align 8
  %7 = getelementptr inbounds %struct.FT_StrokerRec_, ptr %6, i32 0, i32 15
  %8 = getelementptr inbounds [2 x %struct.FT_StrokeBorderRec_], ptr %7, i64 0, i64 0
  call void @ft_stroke_border_reset(ptr noundef %8)
  %9 = load ptr, ptr %2, align 8
  %10 = getelementptr inbounds %struct.FT_StrokerRec_, ptr %9, i32 0, i32 15
  %11 = getelementptr inbounds [2 x %struct.FT_StrokeBorderRec_], ptr %10, i64 0, i64 1
  call void @ft_stroke_border_reset(ptr noundef %11)
  br label %12

12:                                               ; preds = %5, %1
  ret void
}

; Function Attrs: nounwind uwtable
define void @FT_Stroker_Set(ptr noundef %0, i64 noundef %1, i32 noundef %2, i32 noundef %3, i64 noundef %4) #0 {
  %6 = alloca ptr, align 8
  %7 = alloca i64, align 8
  %8 = alloca i32, align 4
  %9 = alloca i32, align 4
  %10 = alloca i64, align 8
  store ptr %0, ptr %6, align 8
  store i64 %1, ptr %7, align 8
  store i32 %2, ptr %8, align 4
  store i32 %3, ptr %9, align 4
  store i64 %4, ptr %10, align 8
  %11 = load ptr, ptr %6, align 8
  %12 = icmp ne ptr %11, null
  br i1 %12, label %14, label %13

13:                                               ; preds = %5
  br label %39

14:                                               ; preds = %5
  %15 = load i64, ptr %7, align 8
  %16 = load ptr, ptr %6, align 8
  %17 = getelementptr inbounds %struct.FT_StrokerRec_, ptr %16, i32 0, i32 14
  store i64 %15, ptr %17, align 8
  %18 = load i32, ptr %8, align 4
  %19 = load ptr, ptr %6, align 8
  %20 = getelementptr inbounds %struct.FT_StrokerRec_, ptr %19, i32 0, i32 10
  store i32 %18, ptr %20, align 4
  %21 = load i32, ptr %9, align 4
  %22 = load ptr, ptr %6, align 8
  %23 = getelementptr inbounds %struct.FT_StrokerRec_, ptr %22, i32 0, i32 11
  store i32 %21, ptr %23, align 8
  %24 = load i64, ptr %10, align 8
  %25 = load ptr, ptr %6, align 8
  %26 = getelementptr inbounds %struct.FT_StrokerRec_, ptr %25, i32 0, i32 13
  store i64 %24, ptr %26, align 8
  %27 = load ptr, ptr %6, align 8
  %28 = getelementptr inbounds %struct.FT_StrokerRec_, ptr %27, i32 0, i32 13
  %29 = load i64, ptr %28, align 8
  %30 = icmp slt i64 %29, 65536
  br i1 %30, label %31, label %34

31:                                               ; preds = %14
  %32 = load ptr, ptr %6, align 8
  %33 = getelementptr inbounds %struct.FT_StrokerRec_, ptr %32, i32 0, i32 13
  store i64 65536, ptr %33, align 8
  br label %34

34:                                               ; preds = %31, %14
  %35 = load i32, ptr %9, align 4
  %36 = load ptr, ptr %6, align 8
  %37 = getelementptr inbounds %struct.FT_StrokerRec_, ptr %36, i32 0, i32 12
  store i32 %35, ptr %37, align 4
  %38 = load ptr, ptr %6, align 8
  call void @FT_Stroker_Rewind(ptr noundef %38)
  br label %39

39:                                               ; preds = %34, %13
  ret void
}