; Function Attrs: mustprogress nofree norecurse nosync nounwind willreturn memory(argmem: write) uwtable
define void @FT_Stroker_Set(ptr noundef writeonly %0, i64 noundef %1, i32 noundef %2, i32 noundef %3, i64 noundef %4) local_unnamed_addr #2 {
  %.not = icmp eq ptr %0, null
  br i1 %.not, label %17, label %FT_Stroker_Rewind.exit

FT_Stroker_Rewind.exit:                           ; preds = %5
  %6 = getelementptr inbounds nuw i8, ptr %0, i64 104
  store i64 %1, ptr %6, align 8
  %7 = getelementptr inbounds nuw i8, ptr %0, i64 84
  store i32 %2, ptr %7, align 4
  %8 = getelementptr inbounds nuw i8, ptr %0, i64 88
  store i32 %3, ptr %8, align 8
  %9 = getelementptr inbounds nuw i8, ptr %0, i64 96
  %spec.select = tail call i64 @llvm.smax.i64(i64 %4, i64 65536)
  store i64 %spec.select, ptr %9, align 8
  %10 = getelementptr inbounds nuw i8, ptr %0, i64 92
  store i32 %3, ptr %10, align 4
  %11 = getelementptr inbounds nuw i8, ptr %0, i64 112
  store i32 0, ptr %11, align 8
  %12 = getelementptr inbounds nuw i8, ptr %0, i64 140
  store i32 -1, ptr %12, align 4
  %13 = getelementptr inbounds nuw i8, ptr %0, i64 152
  store i8 0, ptr %13, align 8
  %14 = getelementptr inbounds nuw i8, ptr %0, i64 160
  store i32 0, ptr %14, align 8
  %15 = getelementptr inbounds nuw i8, ptr %0, i64 188
  store i32 -1, ptr %15, align 4
  %16 = getelementptr inbounds nuw i8, ptr %0, i64 200
  store i8 0, ptr %16, align 8
  br label %17

17:                                               ; preds = %5, %FT_Stroker_Rewind.exit
  ret void
}